target datalayout = "e-m:e-p270:32:32-p271:32:32-p272:64:64-i64:64-i128:128-f80:128-n8:16:32:64-S128"
target triple = "x86_64-pc-linux-gnu"

%"class.llvm::SmallVectorBase" = type { ptr, i32, i32 }
%"class.llvm::BitVector" = type <{ %"class.llvm::SmallVector.236", i32, [4 x i8] }>
%"class.llvm::SmallVector.236" = type { %"class.llvm::SmallVectorImpl.237", %"struct.llvm::SmallVectorStorage.240" }
%"class.llvm::SmallVectorImpl.237" = type { %"class.llvm::SmallVectorTemplateBase.238" }
%"class.llvm::SmallVectorTemplateBase.238" = type { %"class.llvm::SmallVectorTemplateCommon.239" }
%"class.llvm::SmallVectorTemplateCommon.239" = type { %"class.llvm::SmallVectorBase" }
%"struct.llvm::SmallVectorStorage.240" = type { [48 x i8] }
%"struct.std::pair.307" = type { ptr, %"class.llvm::BitVector" }
%class.anon.309 = type { ptr }
%"class.__gnu_cxx::__normal_iterator.311" = type { ptr }
%"struct.__gnu_cxx::__ops::_Iter_comp_iter.619" = type { %class.anon.309 }

; Function Attrs: mustprogress nounwind uwtable
define linkonce_odr hidden void @_ZN9__gnu_cxx17__normal_iteratorIPSt4pairIPN4llvm20CodeGenRegisterClassENS2_9BitVectorEESt6vectorIS6_SaIS6_EEEC2ERKS7_(ptr noundef nonnull align 8 dereferenceable(8) %0, ptr noundef nonnull align 8 dereferenceable(8) %1) unnamed_addr #0 comdat align 2 {
  %3 = alloca ptr, align 8
  %4 = alloca ptr, align 8
  store ptr %0, ptr %3, align 8
  store ptr %1, ptr %4, align 8
  %5 = load ptr, ptr %3, align 8
  %6 = getelementptr inbounds nuw %"class.__gnu_cxx::__normal_iterator.311", ptr %5, i32 0, i32 0
  %7 = load ptr, ptr %4, align 8
  %8 = load ptr, ptr %7, align 8
  store ptr %8, ptr %6, align 8
  ret void
}

; Function Attrs: mustprogress nounwind uwtable
define linkonce_odr hidden noundef nonnull align 8 dereferenceable(8) ptr @_ZNK9__gnu_cxx17__normal_iteratorIPSt4pairIPN4llvm20CodeGenRegisterClassENS2_9BitVectorEESt6vectorIS6_SaIS6_EEE4baseEv(ptr noundef nonnull align 8 dereferenceable(8) %0) #0 comdat align 2 {
  %2 = alloca ptr, align 8
  store ptr %0, ptr %2, align 8
  %3 = load ptr, ptr %2, align 8
  %4 = getelementptr inbounds nuw %"class.__gnu_cxx::__normal_iterator.311", ptr %3, i32 0, i32 0
  ret ptr %4
}

; Function Attrs: mustprogress nounwind uwtable
define linkonce_odr hidden ptr @_ZNK9__gnu_cxx17__normal_iteratorIPSt4pairIPN4llvm20CodeGenRegisterClassENS2_9BitVectorEESt6vectorIS6_SaIS6_EEEplEl(ptr noundef nonnull align 8 dereferenceable(8) %0, i64 noundef %1) #0 comdat align 2 {
  %3 = alloca %"class.__gnu_cxx::__normal_iterator.311", align 8
  %4 = alloca ptr, align 8
  %5 = alloca i64, align 8
  %6 = alloca ptr, align 8
  store ptr %0, ptr %4, align 8
  store i64 %1, ptr %5, align 8
  %7 = load ptr, ptr %4, align 8
  %8 = getelementptr inbounds nuw %"class.__gnu_cxx::__normal_iterator.311", ptr %7, i32 0, i32 0
  %9 = load ptr, ptr %8, align 8
  %10 = load i64, ptr %5, align 8
  %11 = getelementptr inbounds %"struct.std::pair.307", ptr %9, i64 %10
  store ptr %11, ptr %6, align 8
  call void @_ZN9__gnu_cxx17__normal_iteratorIPSt4pairIPN4llvm20CodeGenRegisterClassENS2_9BitVectorEESt6vectorIS6_SaIS6_EEEC2ERKS7_(ptr noundef nonnull align 8 dereferenceable(8) %3, ptr noundef nonnull align 8 dereferenceable(8) %6) #6
  %12 = getelementptr inbounds nuw %"class.__gnu_cxx::__normal_iterator.311", ptr %3, i32 0, i32 0
  %13 = load ptr, ptr %12, align 8
  ret ptr %13
}

; Function Attrs: mustprogress nounwind uwtable
define linkonce_odr noundef i64 @_ZN9__gnu_cxxmiIPSt4pairIPN4llvm20CodeGenRegisterClassENS2_9BitVectorEESt6vectorIS6_SaIS6_EEEENS_17__normal_iteratorIT_T0_E15difference_typeERKSE_SH_(ptr noundef nonnull align 8 dereferenceable(8) %0, ptr noundef nonnull align 8 dereferenceable(8) %1) #0 comdat {
  %3 = alloca ptr, align 8
  %4 = alloca ptr, align 8
  store ptr %0, ptr %3, align 8
  store ptr %1, ptr %4, align 8
  %5 = load ptr, ptr %3, align 8
  %6 = call noundef nonnull align 8 dereferenceable(8) ptr @_ZNK9__gnu_cxx17__normal_iteratorIPSt4pairIPN4llvm20CodeGenRegisterClassENS2_9BitVectorEESt6vectorIS6_SaIS6_EEE4baseEv(ptr noundef nonnull align 8 dereferenceable(8) %5) #6
  %7 = load ptr, ptr %6, align 8
  %8 = load ptr, ptr %4, align 8
  %9 = call noundef nonnull align 8 dereferenceable(8) ptr @_ZNK9__gnu_cxx17__normal_iteratorIPSt4pairIPN4llvm20CodeGenRegisterClassENS2_9BitVectorEESt6vectorIS6_SaIS6_EEE4baseEv(ptr noundef nonnull align 8 dereferenceable(8) %8) #6
  %10 = load ptr, ptr %9, align 8
  %11 = ptrtoint ptr %7 to i64
  %12 = ptrtoint ptr %10 to i64
  %13 = sub i64 %11, %12
  %14 = sdiv exact i64 %13, 80
  ret i64 %14
}

; Function Attrs: mustprogress nounwind uwtable
define internal void @"_ZSt21__inplace_stable_sortIN9__gnu_cxx17__normal_iteratorIPSt4pairIPN4llvm20CodeGenRegisterClassENS3_9BitVectorEESt6vectorIS7_SaIS7_EEEENS0_5__ops15_Iter_comp_iterIZNKS4_30getMatchingSubClassWithSubRegsERNS3_14CodeGenRegBankEPKNS3_18CodeGenSubRegIndexEE3$_1EEEvT_SM_T0_"(ptr %0, ptr %1, ptr %2) #0 {
  %4 = alloca %"class.__gnu_cxx::__normal_iterator.311", align 8
  %5 = alloca %"class.__gnu_cxx::__normal_iterator.311", align 8
  %6 = alloca %"struct.__gnu_cxx::__ops::_Iter_comp_iter.619", align 8
  %7 = alloca %"class.__gnu_cxx::__normal_iterator.311", align 8
  %8 = alloca %"class.__gnu_cxx::__normal_iterator.311", align 8
  %9 = alloca %"struct.__gnu_cxx::__ops::_Iter_comp_iter.619", align 8
  %10 = alloca %"class.__gnu_cxx::__normal_iterator.311", align 8
  %11 = alloca %"class.__gnu_cxx::__normal_iterator.311", align 8
  %12 = alloca %"class.__gnu_cxx::__normal_iterator.311", align 8
  %13 = alloca %"struct.__gnu_cxx::__ops::_Iter_comp_iter.619", align 8
  %14 = alloca %"class.__gnu_cxx::__normal_iterator.311", align 8
  %15 = alloca %"class.__gnu_cxx::__normal_iterator.311", align 8
  %16 = alloca %"struct.__gnu_cxx::__ops::_Iter_comp_iter.619", align 8
  %17 = alloca %"class.__gnu_cxx::__normal_iterator.311", align 8
  %18 = alloca %"class.__gnu_cxx::__normal_iterator.311", align 8
  %19 = alloca %"class.__gnu_cxx::__normal_iterator.311", align 8
  %20 = alloca %"struct.__gnu_cxx::__ops::_Iter_comp_iter.619", align 8
  %21 = getelementptr inbounds nuw %"class.__gnu_cxx::__normal_iterator.311", ptr %4, i32 0, i32 0
  store ptr %0, ptr %21, align 8
  %22 = getelementptr inbounds nuw %"class.__gnu_cxx::__normal_iterator.311", ptr %5, i32 0, i32 0
  store ptr %1, ptr %22, align 8
  %23 = getelementptr inbounds nuw %"struct.__gnu_cxx::__ops::_Iter_comp_iter.619", ptr %6, i32 0, i32 0
  %24 = getelementptr inbounds nuw %class.anon.309, ptr %23, i32 0, i32 0
  store ptr %2, ptr %24, align 8
  %25 = call noundef i64 @_ZN9__gnu_cxxmiIPSt4pairIPN4llvm20CodeGenRegisterClassENS2_9BitVectorEESt6vectorIS6_SaIS6_EEEENS_17__normal_iteratorIT_T0_E15difference_typeERKSE_SH_(ptr noundef nonnull align 8 dereferenceable(8) %5, ptr noundef nonnull align 8 dereferenceable(8) %4) #6
  %26 = icmp slt i64 %25, 15
  br i1 %26, label %27, label %35

27:                                               ; preds = %3
  call void @llvm.memcpy.p0.p0.i64(ptr align 8 %7, ptr align 8 %4, i64 8, i1 false)
  call void @llvm.memcpy.p0.p0.i64(ptr align 8 %8, ptr align 8 %5, i64 8, i1 false)
  call void @llvm.memcpy.p0.p0.i64(ptr align 8 %9, ptr align 8 %6, i64 8, i1 false)
  %28 = getelementptr inbounds nuw %"class.__gnu_cxx::__normal_iterator.311", ptr %7, i32 0, i32 0
  %29 = load ptr, ptr %28, align 8
  %30 = getelementptr inbounds nuw %"class.__gnu_cxx::__normal_iterator.311", ptr %8, i32 0, i32 0
  %31 = load ptr, ptr %30, align 8
  %32 = getelementptr inbounds nuw %"struct.__gnu_cxx::__ops::_Iter_comp_iter.619", ptr %9, i32 0, i32 0
  %33 = getelementptr inbounds nuw %class.anon.309, ptr %32, i32 0, i32 0
  %34 = load ptr, ptr %33, align 8
  call void @"_ZSt16__insertion_sortIN9__gnu_cxx17__normal_iteratorIPSt4pairIPN4llvm20CodeGenRegisterClassENS3_9BitVectorEESt6vectorIS7_SaIS7_EEEENS0_5__ops15_Iter_comp_iterIZNKS4_30getMatchingSubClassWithSubRegsERNS3_14CodeGenRegBankEPKNS3_18CodeGenSubRegIndexEE3$_1EEEvT_SM_T0_"(ptr %29, ptr %31, ptr %34)
  br label %65

35:                                               ; preds = %3
  %36 = call noundef i64 @_ZN9__gnu_cxxmiIPSt4pairIPN4llvm20CodeGenRegisterClassENS2_9BitVectorEESt6vectorIS6_SaIS6_EEEENS_17__normal_iteratorIT_T0_E15difference_typeERKSE_SH_(ptr noundef nonnull align 8 dereferenceable(8) %5, ptr noundef nonnull align 8 dereferenceable(8) %4) #6
  %37 = sdiv i64 %36, 2
  %38 = call ptr @_ZNK9__gnu_cxx17__normal_iteratorIPSt4pairIPN4llvm20CodeGenRegisterClassENS2_9BitVectorEESt6vectorIS6_SaIS6_EEEplEl(ptr noundef nonnull align 8 dereferenceable(8) %4, i64 noundef %37) #6
  %39 = getelementptr inbounds nuw %"class.__gnu_cxx::__normal_iterator.311", ptr %10, i32 0, i32 0
  store ptr %38, ptr %39, align 8
  call void @llvm.memcpy.p0.p0.i64(ptr align 8 %11, ptr align 8 %4, i64 8, i1 false)
  call void @llvm.memcpy.p0.p0.i64(ptr align 8 %12, ptr align 8 %10, i64 8, i1 false)
  call void @llvm.memcpy.p0.p0.i64(ptr align 8 %13, ptr align 8 %6, i64 8, i1 false)
  %40 = getelementptr inbounds nuw %"class.__gnu_cxx::__normal_iterator.311", ptr %11, i32 0, i32 0
  %41 = load ptr, ptr %40, align 8
  %42 = getelementptr inbounds nuw %"class.__gnu_cxx::__normal_iterator.311", ptr %12, i32 0, i32 0
  %43 = load ptr, ptr %42, align 8
  %44 = getelementptr inbounds nuw %"struct.__gnu_cxx::__ops::_Iter_comp_iter.619", ptr %13, i32 0, i32 0
  %45 = getelementptr inbounds nuw %class.anon.309, ptr %44, i32 0, i32 0
  %46 = load ptr, ptr %45, align 8
  call void @"_ZSt21__inplace_stable_sortIN9__gnu_cxx17__normal_iteratorIPSt4pairIPN4llvm20CodeGenRegisterClassENS3_9BitVectorEESt6vectorIS7_SaIS7_EEEENS0_5__ops15_Iter_comp_iterIZNKS4_30getMatchingSubClassWithSubRegsERNS3_14CodeGenRegBankEPKNS3_18CodeGenSubRegIndexEE3$_1EEEvT_SM_T0_"(ptr %41, ptr %43, ptr %46)
  call void @llvm.memcpy.p0.p0.i64(ptr align 8 %14, ptr align 8 %10, i64 8, i1 false)
  call void @llvm.memcpy.p0.p0.i64(ptr align 8 %15, ptr align 8 %5, i64 8, i1 false)
  call void @llvm.memcpy.p0.p0.i64(ptr align 8 %16, ptr align 8 %6, i64 8, i1 false)
  %47 = getelementptr inbounds nuw %"class.__gnu_cxx::__normal_iterator.311", ptr %14, i32 0, i32 0
  %48 = load ptr, ptr %47, align 8
  %49 = getelementptr inbounds nuw %"class.__gnu_cxx::__normal_iterator.311", ptr %15, i32 0, i32 0
  %50 = load ptr, ptr %49, align 8
  %51 = getelementptr inbounds nuw %"struct.__gnu_cxx::__ops::_Iter_comp_iter.619", ptr %16, i32 0, i32 0
  %52 = getelementptr inbounds nuw %class.anon.309, ptr %51, i32 0, i32 0
  %53 = load ptr, ptr %52, align 8
  call void @"_ZSt21__inplace_stable_sortIN9__gnu_cxx17__normal_iteratorIPSt4pairIPN4llvm20CodeGenRegisterClassENS3_9BitVectorEESt6vectorIS7_SaIS7_EEEENS0_5__ops15_Iter_comp_iterIZNKS4_30getMatchingSubClassWithSubRegsERNS3_14CodeGenRegBankEPKNS3_18CodeGenSubRegIndexEE3$_1EEEvT_SM_T0_"(ptr %48, ptr %50, ptr %53)
  call void @llvm.memcpy.p0.p0.i64(ptr align 8 %17, ptr align 8 %4, i64 8, i1 false)
  call void @llvm.memcpy.p0.p0.i64(ptr align 8 %18, ptr align 8 %10, i64 8, i1 false)
  call void @llvm.memcpy.p0.p0.i64(ptr align 8 %19, ptr align 8 %5, i64 8, i1 false)
  %54 = call noundef i64 @_ZN9__gnu_cxxmiIPSt4pairIPN4llvm20CodeGenRegisterClassENS2_9BitVectorEESt6vectorIS6_SaIS6_EEEENS_17__normal_iteratorIT_T0_E15difference_typeERKSE_SH_(ptr noundef nonnull align 8 dereferenceable(8) %10, ptr noundef nonnull align 8 dereferenceable(8) %4) #6
  %55 = call noundef i64 @_ZN9__gnu_cxxmiIPSt4pairIPN4llvm20CodeGenRegisterClassENS2_9BitVectorEESt6vectorIS6_SaIS6_EEEENS_17__normal_iteratorIT_T0_E15difference_typeERKSE_SH_(ptr noundef nonnull align 8 dereferenceable(8) %5, ptr noundef nonnull align 8 dereferenceable(8) %10) #6
  call void @llvm.memcpy.p0.p0.i64(ptr align 8 %20, ptr align 8 %6, i64 8, i1 false)
  %56 = getelementptr inbounds nuw %"class.__gnu_cxx::__normal_iterator.311", ptr %17, i32 0, i32 0
  %57 = load ptr, ptr %56, align 8
  %58 = getelementptr inbounds nuw %"class.__gnu_cxx::__normal_iterator.311", ptr %18, i32 0, i32 0
  %59 = load ptr, ptr %58, align 8
  %60 = getelementptr inbounds nuw %"class.__gnu_cxx::__normal_iterator.311", ptr %19, i32 0, i32 0
  %61 = load ptr, ptr %60, align 8
  %62 = getelementptr inbounds nuw %"struct.__gnu_cxx::__ops::_Iter_comp_iter.619", ptr %20, i32 0, i32 0
  %63 = getelementptr inbounds nuw %class.anon.309, ptr %62, i32 0, i32 0
  %64 = load ptr, ptr %63, align 8
  call void @"_ZSt22__merge_without_bufferIN9__gnu_cxx17__normal_iteratorIPSt4pairIPN4llvm20CodeGenRegisterClassENS3_9BitVectorEESt6vectorIS7_SaIS7_EEEElNS0_5__ops15_Iter_comp_iterIZNKS4_30getMatchingSubClassWithSubRegsERNS3_14CodeGenRegBankEPKNS3_18CodeGenSubRegIndexEE3$_1EEEvT_SM_SM_T0_SN_T1_"(ptr %57, ptr %59, ptr %61, i64 noundef %54, i64 noundef %55, ptr %64)
  br label %65

65:                                               ; preds = %35, %27
  ret void
}