; Function Attrs: mustprogress nounwind uwtable
define internal fastcc void @"_ZSt21__inplace_stable_sortIN9__gnu_cxx17__normal_iteratorIPSt4pairIPN4llvm20CodeGenRegisterClassENS3_9BitVectorEESt6vectorIS7_SaIS7_EEEENS0_5__ops15_Iter_comp_iterIZNKS4_30getMatchingSubClassWithSubRegsERNS3_14CodeGenRegBankEPKNS3_18CodeGenSubRegIndexEE3$_1EEEvT_SM_T0_"(ptr %0, ptr %1, ptr %2) unnamed_addr #0 {
  %4 = ptrtoint ptr %1 to i64
  %5 = ptrtoint ptr %0 to i64
  %6 = sub i64 %4, %5
  %7 = icmp slt i64 %6, 1200
  br i1 %7, label %common.ret, label %8

common.ret:                                       ; preds = %3
  tail call fastcc void @"_ZSt16__insertion_sortIN9__gnu_cxx17__normal_iteratorIPSt4pairIPN4llvm20CodeGenRegisterClassENS3_9BitVectorEESt6vectorIS7_SaIS7_EEEENS0_5__ops15_Iter_comp_iterIZNKS4_30getMatchingSubClassWithSubRegsERNS3_14CodeGenRegBankEPKNS3_18CodeGenSubRegIndexEE3$_1EEEvT_SM_T0_"(ptr %0, ptr %1, ptr %2)
  br label %common.ret22

common.ret22:                                     ; preds = %8, %common.ret
  ret void

8:                                                ; preds = %3
  %9 = udiv exact i64 %6, 80
  %10 = lshr i64 %9, 1
  %11 = getelementptr inbounds %"struct.std::pair.307", ptr %0, i64 %10
  tail call fastcc void @"_ZSt21__inplace_stable_sortIN9__gnu_cxx17__normal_iteratorIPSt4pairIPN4llvm20CodeGenRegisterClassENS3_9BitVectorEESt6vectorIS7_SaIS7_EEEENS0_5__ops15_Iter_comp_iterIZNKS4_30getMatchingSubClassWithSubRegsERNS3_14CodeGenRegBankEPKNS3_18CodeGenSubRegIndexEE3$_1EEEvT_SM_T0_"(ptr %0, ptr %11, ptr %2)
  tail call fastcc void @"_ZSt21__inplace_stable_sortIN9__gnu_cxx17__normal_iteratorIPSt4pairIPN4llvm20CodeGenRegisterClassENS3_9BitVectorEESt6vectorIS7_SaIS7_EEEENS0_5__ops15_Iter_comp_iterIZNKS4_30getMatchingSubClassWithSubRegsERNS3_14CodeGenRegBankEPKNS3_18CodeGenSubRegIndexEE3$_1EEEvT_SM_T0_"(ptr %11, ptr %1, ptr %2)
  %12 = ptrtoint ptr %11 to i64
  %13 = sub i64 %4, %12
  %14 = sdiv exact i64 %13, 80
  tail call fastcc void @"_ZSt22__merge_without_bufferIN9__gnu_cxx17__normal_iteratorIPSt4pairIPN4llvm20CodeGenRegisterClassENS3_9BitVectorEESt6vectorIS7_SaIS7_EEEElNS0_5__ops15_Iter_comp_iterIZNKS4_30getMatchingSubClassWithSubRegsERNS3_14CodeGenRegBankEPKNS3_18CodeGenSubRegIndexEE3$_1EEEvT_SM_SM_T0_SN_T1_"(ptr %0, ptr %11, ptr %1, i64 noundef %10, i64 noundef %14, ptr %2)
  br label %common.ret22
}